; Function Attrs: mustprogress nounwind uwtable
define hidden noundef i32 @_ZN12PhaseChaitin20yank_if_dead_recurseEP4NodeS1_P5BlockP9Node_ListS5_(ptr nocapture noundef nonnull readonly align 8 dereferenceable(364) %0, ptr noundef %1, ptr nocapture noundef readnone %2, ptr noundef %3, ptr noundef %4, ptr noundef %5) local_unnamed_addr #0 align 2 {
  %7 = getelementptr inbounds i8, ptr %1, i64 32
  %8 = load i32, ptr %7, align 8
  %9 = icmp eq i32 %8, 0
  br i1 %9, label %10, label %50

10:                                               ; preds = %6
  %11 = getelementptr inbounds i8, ptr %0, i64 16
  %12 = load ptr, ptr %11, align 8
  %13 = getelementptr inbounds i8, ptr %12, i64 744
  %14 = load ptr, ptr %13, align 8
  %.not = icmp eq ptr %14, %1
  br i1 %.not, label %50, label %15

15:                                               ; preds = %10
  %16 = tail call noundef i32 @_ZN12PhaseChaitin4yankEP4NodeP5BlockP9Node_ListS5_(ptr noundef nonnull align 8 dereferenceable(364) %0, ptr noundef nonnull %1, ptr noundef %3, ptr noundef %4, ptr noundef %5)
  %17 = getelementptr inbounds i8, ptr %1, i64 24
  %18 = load i32, ptr %17, align 8
  %19 = icmp ugt i32 %18, 1
  br i1 %19, label %.lr.ph, label %._crit_edge

.lr.ph:                                           ; preds = %15
  %20 = getelementptr inbounds i8, ptr %1, i64 8
  br label %21

21:                                               ; preds = %.lr.ph, %45
  %22 = phi i32 [ %18, %.lr.ph ], [ %46, %45 ]
  %indvars.iv = phi i64 [ 1, %.lr.ph ], [ %indvars.iv.next, %45 ]
  %.028 = phi i32 [ %16, %.lr.ph ], [ %.1, %45 ]
  %23 = load ptr, ptr %20, align 8
  %24 = getelementptr inbounds ptr, ptr %23, i64 %indvars.iv
  %25 = load ptr, ptr %24, align 8
  %.not26 = icmp eq ptr %25, null
  br i1 %.not26, label %45, label %26

26:                                               ; preds = %21
  %27 = getelementptr inbounds i8, ptr %25, i64 16
  %28 = load ptr, ptr %27, align 8
  %29 = icmp eq ptr %28, null
  br i1 %29, label %_ZN4Node7set_reqEjPS_.exit, label %30

30:                                               ; preds = %26
  %31 = getelementptr inbounds i8, ptr %25, i64 32
  %32 = load i32, ptr %31, align 8
  %33 = zext i32 %32 to i64
  %34 = getelementptr inbounds ptr, ptr %28, i64 %33
  br label %35

35:                                               ; preds = %35, %30
  %.0.i.i = phi ptr [ %34, %30 ], [ %36, %35 ]
  %36 = getelementptr inbounds i8, ptr %.0.i.i, i64 -8
  %37 = load ptr, ptr %36, align 8
  %.not.i.i = icmp eq ptr %37, %1
  br i1 %.not.i.i, label %38, label %35, !llvm.loop !8

38:                                               ; preds = %35
  %39 = add i32 %32, -1
  store i32 %39, ptr %31, align 8
  %40 = zext i32 %39 to i64
  %41 = getelementptr inbounds ptr, ptr %28, i64 %40
  %42 = load ptr, ptr %41, align 8
  store ptr %42, ptr %36, align 8
  br label %_ZN4Node7set_reqEjPS_.exit

_ZN4Node7set_reqEjPS_.exit:                       ; preds = %26, %38
  store ptr null, ptr %24, align 8
  %43 = tail call noundef i32 @_ZN12PhaseChaitin20yank_if_dead_recurseEP4NodeS1_P5BlockP9Node_ListS5_(ptr noundef nonnull align 8 dereferenceable(364) %0, ptr noundef nonnull %25, ptr noundef %2, ptr noundef %3, ptr noundef %4, ptr noundef %5)
  %44 = add nsw i32 %43, %.028
  %.pre = load i32, ptr %17, align 8
  br label %45

45:                                               ; preds = %21, %_ZN4Node7set_reqEjPS_.exit
  %46 = phi i32 [ %.pre, %_ZN4Node7set_reqEjPS_.exit ], [ %22, %21 ]
  %.1 = phi i32 [ %44, %_ZN4Node7set_reqEjPS_.exit ], [ %.028, %21 ]
  %indvars.iv.next = add nuw nsw i64 %indvars.iv, 1
  %47 = zext i32 %46 to i64
  %48 = icmp ult i64 %indvars.iv.next, %47
  br i1 %48, label %21, label %._crit_edge, !llvm.loop !9

._crit_edge:                                      ; preds = %45, %15
  %.0.lcssa = phi i32 [ %16, %15 ], [ %.1, %45 ]
  %49 = load ptr, ptr %11, align 8
  tail call void @_ZN4Node17disconnect_inputsEP7Compile(ptr noundef nonnull align 8 dereferenceable(52) %1, ptr noundef %49) #9
  br label %50

50:                                               ; preds = %._crit_edge, %10, %6
  %.2 = phi i32 [ %.0.lcssa, %._crit_edge ], [ 0, %10 ], [ 0, %6 ]
  ret i32 %.2
}